; Function Attrs: nounwind sspstrong uwtable
define dso_local i64 @rb_hash_dup(i64 noundef %0) local_unnamed_addr #0 {
  %2 = inttoptr i64 %0 to ptr
  %3 = load i64, ptr %2, align 8, !tbaa !11
  %4 = tail call i64 @rb_obj_class(i64 noundef %0) #28
  %5 = and i64 %3, 17408
  %6 = getelementptr inbounds nuw i8, ptr %2, i64 16
  %7 = load i64, ptr %6, align 8, !tbaa !56
  %8 = load i64, ptr %2, align 8, !tbaa !11
  %.fr7.i = freeze i64 %8
  %9 = and i64 %.fr7.i, 32768
  %.not.i.i.i.i = icmp eq i64 %9, 0
  br i1 %.not.i.i.i.i, label %10, label %13

10:                                               ; preds = %1
  %11 = lshr i64 %.fr7.i, 16
  %12 = and i64 %11, 15
  br label %RHASH_EMPTY_P.exit.i

13:                                               ; preds = %1
  %14 = add i64 %0, 24
  %15 = inttoptr i64 %14 to ptr
  %16 = getelementptr inbounds nuw i8, ptr %15, i64 16
  %17 = load i64, ptr %16, align 8, !tbaa !49
  br label %RHASH_EMPTY_P.exit.i

RHASH_EMPTY_P.exit.i:                             ; preds = %13, %10
  %.0.i.i.i = phi i64 [ %12, %10 ], [ %17, %13 ]
  %18 = icmp eq i64 %.0.i.i.i, 0
  %19 = or i1 %.not.i.i.i.i, %18
  %20 = select i1 %19, i64 160, i64 80
  %21 = tail call align 8 ptr @llvm.threadlocal.address.p0(ptr align 8 @ruby_current_ec)
  %22 = load ptr, ptr %21, align 8, !tbaa !24
  %23 = or disjoint i64 %5, 8
  %24 = tail call i64 @rb_wb_protected_newobj_of(ptr noundef %22, i64 noundef %4, i64 noundef %23, i64 noundef %20) #28
  %25 = inttoptr i64 %24 to ptr
  %26 = getelementptr inbounds nuw i8, ptr %25, i64 16
  store i64 %7, ptr %26, align 8, !tbaa !7
  %27 = icmp eq i64 %7, 0
  %28 = and i64 %7, 7
  %29 = icmp ne i64 %28, 0
  %30 = or i1 %27, %29
  br i1 %30, label %hash_dup.exit, label %31

31:                                               ; preds = %RHASH_EMPTY_P.exit.i
  tail call void @rb_gc_writebarrier(i64 noundef %24, i64 noundef %7) #28
  br label %hash_dup.exit

hash_dup.exit:                                    ; preds = %RHASH_EMPTY_P.exit.i, %31
  %32 = tail call fastcc i64 @hash_copy(i64 noundef %24, i64 noundef %0)
  %33 = and i64 %3, 1024
  %.not = icmp eq i64 %33, 0
  br i1 %.not, label %35, label %34

34:                                               ; preds = %hash_dup.exit
  tail call void @rb_copy_generic_ivar(i64 noundef %24, i64 noundef %0) #28
  br label %35

35:                                               ; preds = %34, %hash_dup.exit
  ret i64 %24
}